; Function Attrs: mustprogress nofree norecurse nosync nounwind willreturn memory(none) uwtable
define internal noundef zeroext range(i8 0, 3) i8 @_ZN5YosysL8logic_orENS_5RTLIL5StateES1_(i8 noundef zeroext %0, i8 noundef zeroext %1) #5 {
  %3 = icmp eq i8 %0, 1
  %4 = icmp eq i8 %1, 1
  %or.cond = or i1 %3, %4
  br i1 %or.cond, label %7, label %5

5:                                                ; preds = %2
  %.not = icmp eq i8 %0, 0
  br i1 %.not, label %6, label %7

6:                                                ; preds = %5
  %.not7 = icmp eq i8 %1, 0
  %. = select i1 %.not7, i8 0, i8 2
  br label %7

7:                                                ; preds = %6, %5, %2
  %.0 = phi i8 [ 1, %2 ], [ 2, %5 ], [ %., %6 ]
  ret i8 %.0
}